; Function Attrs: mustprogress nounwind uwtable
define void @_ZN6casadi13ImplicitToNlpD2Ev(ptr noundef nonnull align 8 dereferenceable(1608) initializes((0, 8), (1528, 1536)) %0) unnamed_addr #5 align 2 personality ptr @__gxx_personality_v0 {
  store ptr getelementptr inbounds nuw inrange(-16, 984) (i8, ptr @_ZTVN6casadi13ImplicitToNlpE, i64 16), ptr %0, align 8, !tbaa !31
  %2 = getelementptr inbounds nuw i8, ptr %0, i64 1528
  store ptr getelementptr inbounds nuw inrange(-16, 8) (i8, ptr @_ZTVN6casadi13ImplicitToNlpE, i64 1016), ptr %2, align 8, !tbaa !31
  invoke void @_ZN6casadi13ProtoFunction9clear_memEv(ptr noundef nonnull align 8 dereferenceable(168) %0)
          to label %3 unwind label %5

3:                                                ; preds = %1
  %4 = getelementptr inbounds nuw i8, ptr %0, i64 1600
  tail call void @_ZN6casadi8FunctionD1Ev(ptr noundef nonnull align 8 dereferenceable(8) %4) #24
  tail call void @_ZN6casadi10RootfinderD2Ev(ptr noundef nonnull align 8 dereferenceable(1600) %0) #24
  ret void

5:                                                ; preds = %1
  %6 = landingpad { ptr, i32 }
          catch ptr null
  %7 = extractvalue { ptr, i32 } %6, 0
  tail call void @__clang_call_terminate(ptr %7) #27
  unreachable
}